; Function Attrs: mustprogress uwtable
define dso_local void @_ZN10V3ParseImp12yylexReadTokEv(ptr nocapture noundef nonnull writeonly align 8 dereferenceable(496) %0) #4 align 2 {
  %2 = load ptr, ptr @_ZN10V3ParseImp8s_parsepE, align 8
  %3 = getelementptr inbounds i8, ptr %2, i64 32
  %4 = load ptr, ptr %3, align 8
  %5 = getelementptr inbounds i8, ptr %4, i64 16
  %6 = getelementptr inbounds i8, ptr %4, i64 8
  %7 = load <2 x i32>, ptr %5, align 8
  store <2 x i32> %7, ptr %6, align 8
  %8 = getelementptr inbounds i8, ptr %2, i64 24
  %9 = load ptr, ptr %8, align 8
  %10 = tail call noundef i32 @_ZN11V3LexerBase5yylexEv(ptr noundef nonnull align 8 dereferenceable(732) %9)
  %11 = getelementptr inbounds i8, ptr %0, i64 64
  store i32 %10, ptr %11, align 8
  store i32 %10, ptr getelementptr inbounds (%struct.V3ParseBisonYYSType, ptr @yylval, i64 0, i32 2), align 8
  ret void
}